target datalayout = "e-m:e-p270:32:32-p271:32:32-p272:64:64-i64:64-i128:128-f80:128-n8:16:32:64-S128"
target triple = "x86_64-pc-linux-gnu"

%"class.ncnn::Layer" = type { ptr, i8, i8, i8, i8, i8, i8, i8, i8, i8, i8, i8, i8, i8, i8, i8, i8, i8, i8, i8, i8, i32, ptr, i32, %"class.std::__cxx11::basic_string", %"class.std::__cxx11::basic_string", %"class.std::vector", %"class.std::vector", %"class.std::vector.3", %"class.std::vector.3" }
%"class.std::__cxx11::basic_string" = type { %"struct.std::__cxx11::basic_string<char>::_Alloc_hider", i64, %union.anon }
%"struct.std::__cxx11::basic_string<char>::_Alloc_hider" = type { ptr }
%union.anon = type { i64, [8 x i8] }
%"class.std::vector" = type { %"struct.std::_Vector_base" }
%"struct.std::_Vector_base" = type { %"struct.std::_Vector_base<int, std::allocator<int>>::_Vector_impl" }
%"struct.std::_Vector_base<int, std::allocator<int>>::_Vector_impl" = type { %"struct.std::_Vector_base<int, std::allocator<int>>::_Vector_impl_data" }
%"struct.std::_Vector_base<int, std::allocator<int>>::_Vector_impl_data" = type { ptr, ptr, ptr }
%"class.std::vector.3" = type { %"struct.std::_Vector_base.4" }
%"struct.std::_Vector_base.4" = type { %"struct.std::_Vector_base<ncnn::Mat, std::allocator<ncnn::Mat>>::_Vector_impl" }
%"struct.std::_Vector_base<ncnn::Mat, std::allocator<ncnn::Mat>>::_Vector_impl" = type { %"struct.std::_Vector_base<ncnn::Mat, std::allocator<ncnn::Mat>>::_Vector_impl_data" }
%"struct.std::_Vector_base<ncnn::Mat, std::allocator<ncnn::Mat>>::_Vector_impl_data" = type { ptr, ptr, ptr }
%"class.ncnn::Pooling1D" = type { %"class.ncnn::Layer", i32, i32, i32, i32, i32, i32, i32, i32, i32, i32 }

; Function Attrs: mustprogress uwtable
define hidden noundef i32 @_ZN4ncnn9Pooling1D10load_paramERKNS_9ParamDictE(ptr noundef nonnull align 8 dereferenceable(248) %0, ptr noundef nonnull align 8 dereferenceable(16) %1) unnamed_addr #0 align 2 {
  %3 = alloca ptr, align 8
  %4 = alloca ptr, align 8
  store ptr %0, ptr %3, align 8
  store ptr %1, ptr %4, align 8
  %5 = load ptr, ptr %3, align 8
  %6 = load ptr, ptr %4, align 8
  %7 = call noundef i32 @_ZNK4ncnn9ParamDict3getEii(ptr noundef nonnull align 8 dereferenceable(16) %6, i32 noundef 0, i32 noundef 0)
  %8 = getelementptr inbounds nuw %"class.ncnn::Pooling1D", ptr %5, i32 0, i32 1
  store i32 %7, ptr %8, align 8
  %9 = load ptr, ptr %4, align 8
  %10 = call noundef i32 @_ZNK4ncnn9ParamDict3getEii(ptr noundef nonnull align 8 dereferenceable(16) %9, i32 noundef 1, i32 noundef 0)
  %11 = getelementptr inbounds nuw %"class.ncnn::Pooling1D", ptr %5, i32 0, i32 2
  store i32 %10, ptr %11, align 4
  %12 = load ptr, ptr %4, align 8
  %13 = call noundef i32 @_ZNK4ncnn9ParamDict3getEii(ptr noundef nonnull align 8 dereferenceable(16) %12, i32 noundef 2, i32 noundef 1)
  %14 = getelementptr inbounds nuw %"class.ncnn::Pooling1D", ptr %5, i32 0, i32 3
  store i32 %13, ptr %14, align 8
  %15 = load ptr, ptr %4, align 8
  %16 = call noundef i32 @_ZNK4ncnn9ParamDict3getEii(ptr noundef nonnull align 8 dereferenceable(16) %15, i32 noundef 3, i32 noundef 0)
  %17 = getelementptr inbounds nuw %"class.ncnn::Pooling1D", ptr %5, i32 0, i32 4
  store i32 %16, ptr %17, align 4
  %18 = load ptr, ptr %4, align 8
  %19 = getelementptr inbounds nuw %"class.ncnn::Pooling1D", ptr %5, i32 0, i32 4
  %20 = load i32, ptr %19, align 4
  %21 = call noundef i32 @_ZNK4ncnn9ParamDict3getEii(ptr noundef nonnull align 8 dereferenceable(16) %18, i32 noundef 14, i32 noundef %20)
  %22 = getelementptr inbounds nuw %"class.ncnn::Pooling1D", ptr %5, i32 0, i32 5
  store i32 %21, ptr %22, align 8
  %23 = load ptr, ptr %4, align 8
  %24 = call noundef i32 @_ZNK4ncnn9ParamDict3getEii(ptr noundef nonnull align 8 dereferenceable(16) %23, i32 noundef 4, i32 noundef 0)
  %25 = getelementptr inbounds nuw %"class.ncnn::Pooling1D", ptr %5, i32 0, i32 6
  store i32 %24, ptr %25, align 4
  %26 = load ptr, ptr %4, align 8
  %27 = call noundef i32 @_ZNK4ncnn9ParamDict3getEii(ptr noundef nonnull align 8 dereferenceable(16) %26, i32 noundef 5, i32 noundef 0)
  %28 = getelementptr inbounds nuw %"class.ncnn::Pooling1D", ptr %5, i32 0, i32 7
  store i32 %27, ptr %28, align 8
  %29 = load ptr, ptr %4, align 8
  %30 = call noundef i32 @_ZNK4ncnn9ParamDict3getEii(ptr noundef nonnull align 8 dereferenceable(16) %29, i32 noundef 6, i32 noundef 0)
  %31 = getelementptr inbounds nuw %"class.ncnn::Pooling1D", ptr %5, i32 0, i32 8
  store i32 %30, ptr %31, align 4
  %32 = load ptr, ptr %4, align 8
  %33 = call noundef i32 @_ZNK4ncnn9ParamDict3getEii(ptr noundef nonnull align 8 dereferenceable(16) %32, i32 noundef 7, i32 noundef 0)
  %34 = getelementptr inbounds nuw %"class.ncnn::Pooling1D", ptr %5, i32 0, i32 9
  store i32 %33, ptr %34, align 8
  %35 = load ptr, ptr %4, align 8
  %36 = call noundef i32 @_ZNK4ncnn9ParamDict3getEii(ptr noundef nonnull align 8 dereferenceable(16) %35, i32 noundef 8, i32 noundef 0)
  %37 = getelementptr inbounds nuw %"class.ncnn::Pooling1D", ptr %5, i32 0, i32 10
  store i32 %36, ptr %37, align 4
  ret i32 0
}